target datalayout = "e-m:e-p270:32:32-p271:32:32-p272:64:64-i64:64-i128:128-f80:128-n8:16:32:64-S128"
target triple = "x86_64-pc-linux-gnu"

%"class.cv::legacy::tracking::MultiTracker" = type { %"class.cv::Algorithm", %"class.std::vector", %"class.std::vector.0" }
%"class.cv::Algorithm" = type { ptr }
%"class.std::vector" = type { %"struct.std::_Vector_base" }
%"struct.std::_Vector_base" = type { %"struct.std::_Vector_base<cv::Ptr<cv::legacy::tracking::Tracker>, std::allocator<cv::Ptr<cv::legacy::tracking::Tracker>>>::_Vector_impl" }
%"struct.std::_Vector_base<cv::Ptr<cv::legacy::tracking::Tracker>, std::allocator<cv::Ptr<cv::legacy::tracking::Tracker>>>::_Vector_impl" = type { %"struct.std::_Vector_base<cv::Ptr<cv::legacy::tracking::Tracker>, std::allocator<cv::Ptr<cv::legacy::tracking::Tracker>>>::_Vector_impl_data" }
%"struct.std::_Vector_base<cv::Ptr<cv::legacy::tracking::Tracker>, std::allocator<cv::Ptr<cv::legacy::tracking::Tracker>>>::_Vector_impl_data" = type { ptr, ptr, ptr }
%"class.std::vector.0" = type { %"struct.std::_Vector_base.1" }
%"struct.std::_Vector_base.1" = type { %"struct.std::_Vector_base<cv::Rect_<double>, std::allocator<cv::Rect_<double>>>::_Vector_impl" }
%"struct.std::_Vector_base<cv::Rect_<double>, std::allocator<cv::Rect_<double>>>::_Vector_impl" = type { %"struct.std::_Vector_base<cv::Rect_<double>, std::allocator<cv::Rect_<double>>>::_Vector_impl_data" }
%"struct.std::_Vector_base<cv::Rect_<double>, std::allocator<cv::Rect_<double>>>::_Vector_impl_data" = type { ptr, ptr, ptr }
%"struct.cv::Ptr" = type { %"class.std::shared_ptr" }
%"class.std::shared_ptr" = type { %"class.std::__shared_ptr" }
%"class.std::__shared_ptr" = type { ptr, %"class.std::__shared_count" }
%"class.std::__shared_count" = type { ptr }
%"class.cv::Rect_" = type { double, double, double, double }

; Function Attrs: mustprogress nounwind uwtable
define linkonce_odr hidden noundef ptr @_ZNKSt12__shared_ptrIN2cv6legacy8tracking7TrackerELN9__gnu_cxx12_Lock_policyE2EE3getEv(ptr noundef nonnull align 8 dereferenceable(16) %0) #5 comdat align 2 {
  %2 = alloca ptr, align 8
  store ptr %0, ptr %2, align 8, !tbaa !38
  %3 = load ptr, ptr %2, align 8
  %4 = getelementptr inbounds nuw %"class.std::__shared_ptr", ptr %3, i32 0, i32 0
  %5 = load ptr, ptr %4, align 8, !tbaa !99
  ret ptr %5
}

; Function Attrs: mustprogress nounwind uwtable
define linkonce_odr hidden noundef nonnull align 8 dereferenceable(32) ptr @_ZNSt6vectorIN2cv5Rect_IdEESaIS2_EEixEm(ptr noundef nonnull align 8 dereferenceable(24) %0, i64 noundef %1) #5 comdat align 2 {
  %3 = alloca ptr, align 8
  %4 = alloca i64, align 8
  store ptr %0, ptr %3, align 8, !tbaa !12
  store i64 %1, ptr %4, align 8, !tbaa !36
  %5 = load ptr, ptr %3, align 8
  %6 = getelementptr inbounds nuw %"struct.std::_Vector_base.1", ptr %5, i32 0, i32 0
  %7 = getelementptr inbounds nuw %"struct.std::_Vector_base<cv::Rect_<double>, std::allocator<cv::Rect_<double>>>::_Vector_impl_data", ptr %6, i32 0, i32 0
  %8 = load ptr, ptr %7, align 8, !tbaa !14
  %9 = load i64, ptr %4, align 8, !tbaa !36
  %10 = getelementptr inbounds nuw %"class.cv::Rect_", ptr %8, i64 %9
  ret ptr %10
}

; Function Attrs: mustprogress nounwind uwtable
define linkonce_odr hidden noundef ptr @_ZNK2cv3PtrINS_6legacy8tracking7TrackerEEptEv(ptr noundef nonnull align 8 dereferenceable(16) %0) #5 comdat align 2 {
  %2 = alloca ptr, align 8
  store ptr %0, ptr %2, align 8, !tbaa !22
  %3 = load ptr, ptr %2, align 8
  %4 = call noundef ptr @_ZNKSt12__shared_ptrIN2cv6legacy8tracking7TrackerELN9__gnu_cxx12_Lock_policyE2EE3getEv(ptr noundef nonnull align 8 dereferenceable(16) %3) #3
  ret ptr %4
}

; Function Attrs: mustprogress nounwind uwtable
define linkonce_odr hidden noundef nonnull align 8 dereferenceable(16) ptr @_ZNSt6vectorIN2cv3PtrINS0_6legacy8tracking7TrackerEEESaIS5_EEixEm(ptr noundef nonnull align 8 dereferenceable(24) %0, i64 noundef %1) #5 comdat align 2 {
  %3 = alloca ptr, align 8
  %4 = alloca i64, align 8
  store ptr %0, ptr %3, align 8, !tbaa !10
  store i64 %1, ptr %4, align 8, !tbaa !36
  %5 = load ptr, ptr %3, align 8
  %6 = getelementptr inbounds nuw %"struct.std::_Vector_base", ptr %5, i32 0, i32 0
  %7 = getelementptr inbounds nuw %"struct.std::_Vector_base<cv::Ptr<cv::legacy::tracking::Tracker>, std::allocator<cv::Ptr<cv::legacy::tracking::Tracker>>>::_Vector_impl_data", ptr %6, i32 0, i32 0
  %8 = load ptr, ptr %7, align 8, !tbaa !18
  %9 = load i64, ptr %4, align 8, !tbaa !36
  %10 = getelementptr inbounds nuw %"struct.cv::Ptr", ptr %8, i64 %9
  ret ptr %10
}

; Function Attrs: mustprogress nounwind uwtable
define linkonce_odr hidden noundef i64 @_ZNKSt6vectorIN2cv3PtrINS0_6legacy8tracking7TrackerEEESaIS5_EE4sizeEv(ptr noundef nonnull align 8 dereferenceable(24) %0) #5 comdat align 2 {
  %2 = alloca ptr, align 8
  store ptr %0, ptr %2, align 8, !tbaa !10
  %3 = load ptr, ptr %2, align 8
  %4 = getelementptr inbounds nuw %"struct.std::_Vector_base", ptr %3, i32 0, i32 0
  %5 = getelementptr inbounds nuw %"struct.std::_Vector_base<cv::Ptr<cv::legacy::tracking::Tracker>, std::allocator<cv::Ptr<cv::legacy::tracking::Tracker>>>::_Vector_impl_data", ptr %4, i32 0, i32 1
  %6 = load ptr, ptr %5, align 8, !tbaa !21
  %7 = getelementptr inbounds nuw %"struct.std::_Vector_base", ptr %3, i32 0, i32 0
  %8 = getelementptr inbounds nuw %"struct.std::_Vector_base<cv::Ptr<cv::legacy::tracking::Tracker>, std::allocator<cv::Ptr<cv::legacy::tracking::Tracker>>>::_Vector_impl_data", ptr %7, i32 0, i32 0
  %9 = load ptr, ptr %8, align 8, !tbaa !18
  %10 = ptrtoint ptr %6 to i64
  %11 = ptrtoint ptr %9 to i64
  %12 = sub i64 %10, %11
  %13 = sdiv exact i64 %12, 16
  ret i64 %13
}

; Function Attrs: mustprogress uwtable
define noundef zeroext i1 @_ZN2cv6legacy8tracking12MultiTracker6updateERKNS_11_InputArrayE(ptr noundef nonnull align 8 dereferenceable(56) %0, ptr noundef nonnull align 8 dereferenceable(24) %1) #4 align 2 {
  %3 = alloca ptr, align 8
  %4 = alloca ptr, align 8
  %5 = alloca i8, align 1
  %6 = alloca i32, align 4
  store ptr %0, ptr %3, align 8, !tbaa !3
  store ptr %1, ptr %4, align 8, !tbaa !23
  %7 = load ptr, ptr %3, align 8
  call void @llvm.lifetime.start.p0(i64 1, ptr %5) #3
  store i8 1, ptr %5, align 1, !tbaa !28
  call void @llvm.lifetime.start.p0(i64 4, ptr %6) #3
  store i32 0, ptr %6, align 4, !tbaa !30
  br label %8

8:                                                ; preds = %34, %2
  %9 = load i32, ptr %6, align 4, !tbaa !30
  %10 = zext i32 %9 to i64
  %11 = getelementptr inbounds nuw %"class.cv::legacy::tracking::MultiTracker", ptr %7, i32 0, i32 1
  %12 = call noundef i64 @_ZNKSt6vectorIN2cv3PtrINS0_6legacy8tracking7TrackerEEESaIS5_EE4sizeEv(ptr noundef nonnull align 8 dereferenceable(24) %11) #3
  %13 = icmp ult i64 %10, %12
  br i1 %13, label %15, label %14

14:                                               ; preds = %8
  call void @llvm.lifetime.end.p0(i64 4, ptr %6) #3
  br label %37

15:                                               ; preds = %8
  %16 = getelementptr inbounds nuw %"class.cv::legacy::tracking::MultiTracker", ptr %7, i32 0, i32 1
  %17 = load i32, ptr %6, align 4, !tbaa !30
  %18 = zext i32 %17 to i64
  %19 = call noundef nonnull align 8 dereferenceable(16) ptr @_ZNSt6vectorIN2cv3PtrINS0_6legacy8tracking7TrackerEEESaIS5_EEixEm(ptr noundef nonnull align 8 dereferenceable(24) %16, i64 noundef %18) #3
  %20 = call noundef ptr @_ZNK2cv3PtrINS_6legacy8tracking7TrackerEEptEv(ptr noundef nonnull align 8 dereferenceable(16) %19) #3
  %21 = load ptr, ptr %4, align 8, !tbaa !23
  %22 = getelementptr inbounds nuw %"class.cv::legacy::tracking::MultiTracker", ptr %7, i32 0, i32 2
  %23 = load i32, ptr %6, align 4, !tbaa !30
  %24 = zext i32 %23 to i64
  %25 = call noundef nonnull align 8 dereferenceable(32) ptr @_ZNSt6vectorIN2cv5Rect_IdEESaIS2_EEixEm(ptr noundef nonnull align 8 dereferenceable(24) %22, i64 noundef %24) #3
  %26 = call noundef zeroext i1 @_ZN2cv6legacy8tracking7Tracker6updateERKNS_11_InputArrayERNS_5Rect_IdEE(ptr noundef nonnull align 8 dereferenceable(64) %20, ptr noundef nonnull align 8 dereferenceable(24) %21, ptr noundef nonnull align 8 dereferenceable(32) %25)
  %27 = zext i1 %26 to i32
  %28 = load i8, ptr %5, align 1, !tbaa !28, !range !32, !noundef !33
  %29 = trunc i8 %28 to i1
  %30 = zext i1 %29 to i32
  %31 = and i32 %30, %27
  %32 = icmp ne i32 %31, 0
  %33 = zext i1 %32 to i8
  store i8 %33, ptr %5, align 1, !tbaa !28
  br label %34

34:                                               ; preds = %15
  %35 = load i32, ptr %6, align 4, !tbaa !30
  %36 = add i32 %35, 1
  store i32 %36, ptr %6, align 4, !tbaa !30
  br label %8, !llvm.loop !40

37:                                               ; preds = %14
  %38 = load i8, ptr %5, align 1, !tbaa !28, !range !32, !noundef !33
  %39 = trunc i8 %38 to i1
  call void @llvm.lifetime.end.p0(i64 1, ptr %5) #3
  ret i1 %39
}