; Function Attrs: mustprogress uwtable
define noundef zeroext i1 @_ZN2cv6legacy8tracking12MultiTracker6updateERKNS_11_InputArrayE(ptr noundef nonnull readonly align 8 captures(none) dereferenceable(56) %0, ptr noundef nonnull align 8 dereferenceable(24) %1) local_unnamed_addr #3 align 2 {
  %3 = getelementptr inbounds nuw i8, ptr %0, i64 8
  %4 = getelementptr inbounds nuw i8, ptr %0, i64 16
  %5 = load ptr, ptr %4, align 8, !tbaa !14
  %6 = load ptr, ptr %3, align 8, !tbaa !11
  %.not = icmp eq ptr %5, %6
  br i1 %.not, label %._crit_edge, label %.lr.ph

.lr.ph:                                           ; preds = %2
  %7 = getelementptr inbounds nuw i8, ptr %0, i64 32
  br label %8

._crit_edge:                                      ; preds = %8, %2
  %.07.lcssa = phi i1 [ true, %2 ], [ %16, %8 ]
  ret i1 %.07.lcssa

8:                                                ; preds = %.lr.ph, %8
  %9 = phi ptr [ %6, %.lr.ph ], [ %20, %8 ]
  %10 = phi i64 [ 0, %.lr.ph ], [ %18, %8 ]
  %.010 = phi i32 [ 0, %.lr.ph ], [ %17, %8 ]
  %.079 = phi i1 [ true, %.lr.ph ], [ %16, %8 ]
  %11 = getelementptr inbounds nuw %"struct.cv::Ptr", ptr %9, i64 %10
  %12 = load ptr, ptr %11, align 8, !tbaa !28
  %13 = load ptr, ptr %7, align 8, !tbaa !6
  %14 = getelementptr inbounds nuw %"class.cv::Rect_", ptr %13, i64 %10
  %15 = tail call noundef zeroext i1 @_ZN2cv6legacy8tracking7Tracker6updateERKNS_11_InputArrayERNS_5Rect_IdEE(ptr noundef nonnull align 8 dereferenceable(64) %12, ptr noundef nonnull align 8 dereferenceable(24) %1, ptr noundef nonnull align 8 dereferenceable(32) %14)
  %16 = and i1 %.079, %15
  %17 = add i32 %.010, 1
  %18 = zext i32 %17 to i64
  %19 = load ptr, ptr %4, align 8, !tbaa !14
  %20 = load ptr, ptr %3, align 8, !tbaa !11
  %21 = ptrtoint ptr %19 to i64
  %22 = ptrtoint ptr %20 to i64
  %23 = sub i64 %21, %22
  %24 = ashr exact i64 %23, 4
  %25 = icmp ugt i64 %24, %18
  br i1 %25, label %8, label %._crit_edge, !llvm.loop !43
}